; Function Attrs: nounwind uwtable
define internal zeroext i1 @HIDAPI_DriverLg4ff_SetJoystickLED(ptr noundef readonly captures(none) %0, ptr readnone captures(none) %1, i8 noundef zeroext %2, i8 noundef zeroext %3, i8 noundef zeroext %4) #0 {
  %6 = alloca [7 x i8], align 1
  %7 = getelementptr inbounds nuw i8, ptr %0, i64 34
  %8 = load i16, ptr %7, align 2
  switch i16 %8, label %9 [
    i16 -15793, label %switch.lookup
    i16 -15717, label %switch.lookup
  ]

9:                                                ; preds = %5
  %10 = tail call zeroext i1 (ptr, ...) @SDL_SetError_REAL(ptr noundef nonnull @.str.16) #8
  br label %20

switch.lookup:                                    ; preds = %5, %5
  %spec.select = tail call i8 @llvm.umax.i8(i8 %3, i8 %2)
  %.1.in = tail call i8 @llvm.umax.i8(i8 %4, i8 %spec.select)
  %11 = udiv i8 %.1.in, 51
  call void @llvm.lifetime.start.p0(i64 7, ptr nonnull %6) #8
  %12 = shl nuw nsw i8 %11, 3
  %switch.shiftamt = zext nneg i8 %12 to i48
  %switch.downshift = lshr i48 34149402607872, %switch.shiftamt
  %switch.masked = trunc i48 %switch.downshift to i8
  store i8 -8, ptr %6, align 1
  %13 = getelementptr inbounds nuw i8, ptr %6, i64 1
  store i8 18, ptr %13, align 1
  %14 = getelementptr inbounds nuw i8, ptr %6, i64 2
  store i8 %switch.masked, ptr %14, align 1
  %15 = getelementptr inbounds nuw i8, ptr %6, i64 3
  %16 = getelementptr inbounds nuw i8, ptr %0, i64 128
  store i32 0, ptr %15, align 1
  %17 = load ptr, ptr %16, align 8
  %18 = call i32 @SDL_hid_write_REAL(ptr noundef %17, ptr noundef nonnull %6, i64 noundef 7) #8
  %19 = icmp eq i32 %18, 7
  call void @llvm.lifetime.end.p0(i64 7, ptr nonnull %6) #8
  br label %20

20:                                               ; preds = %switch.lookup, %9
  %.011 = phi i1 [ %10, %9 ], [ %19, %switch.lookup ]
  ret i1 %.011
}